target datalayout = "e-m:e-p270:32:32-p271:32:32-p272:64:64-i64:64-i128:128-f80:128-n8:16:32:64-S128"
target triple = "x86_64-pc-linux-gnu"

%struct._oid_user_t = type { ptr, ptr, ptr }

@syntax_table = internal global ptr null, align 8
@oid_users = internal global ptr null, align 8
@num_oid_users = internal global i32 0, align 4

; Function Attrs: null_pointer_is_valid sspstrong uwtable
define hidden void @register_ber_oid_name(ptr noundef %0, ptr noundef %1) #0 {
  %3 = alloca ptr, align 8
  %4 = alloca ptr, align 8
  store ptr %0, ptr %3, align 8
  store ptr %1, ptr %4, align 8
  %5 = load ptr, ptr %4, align 8
  %6 = load ptr, ptr %3, align 8
  call void @oid_add_from_string(ptr noundef %5, ptr noundef %6)
  ret void
}

; Function Attrs: null_pointer_is_valid sspstrong uwtable
define void @register_ber_oid_syntax(ptr noundef %0, ptr noundef %1, ptr noundef %2) #0 {
  %4 = alloca ptr, align 8
  %5 = alloca ptr, align 8
  %6 = alloca ptr, align 8
  store ptr %0, ptr %4, align 8
  store ptr %1, ptr %5, align 8
  store ptr %2, ptr %6, align 8
  %7 = load ptr, ptr %6, align 8
  %8 = icmp ne ptr %7, null
  br i1 %8, label %9, label %21

9:                                                ; preds = %3
  %10 = load ptr, ptr %6, align 8
  %11 = load i8, ptr %10, align 1
  %12 = sext i8 %11 to i32
  %13 = icmp ne i32 %12, 0
  br i1 %13, label %14, label %21

14:                                               ; preds = %9
  %15 = load ptr, ptr @syntax_table, align 8
  %16 = load ptr, ptr %4, align 8
  %17 = call noalias ptr @g_strdup(ptr noundef %16)
  %18 = load ptr, ptr %6, align 8
  %19 = call noalias ptr @g_strdup(ptr noundef %18)
  %20 = call i32 @g_hash_table_insert(ptr noundef %15, ptr noundef %17, ptr noundef %19)
  br label %21

21:                                               ; preds = %14, %9, %3
  %22 = load ptr, ptr %5, align 8
  %23 = icmp ne ptr %22, null
  br i1 %23, label %24, label %32

24:                                               ; preds = %21
  %25 = load ptr, ptr %5, align 8
  %26 = load i8, ptr %25, align 1
  %27 = sext i8 %26 to i32
  %28 = icmp ne i32 %27, 0
  br i1 %28, label %29, label %32

29:                                               ; preds = %24
  %30 = load ptr, ptr %4, align 8
  %31 = load ptr, ptr %5, align 8
  call void @register_ber_oid_name(ptr noundef %30, ptr noundef %31)
  br label %32

32:                                               ; preds = %29, %24, %21
  ret void
}

; Function Attrs: null_pointer_is_valid sspstrong uwtable
define internal void @ber_update_oids() #0 {
  %1 = alloca i32, align 4
  call void @llvm.lifetime.start.p0(i64 4, ptr %1) #12
  store i32 0, ptr %1, align 4
  br label %2

2:                                                ; preds = %25, %0
  %3 = load i32, ptr %1, align 4
  %4 = load i32, ptr @num_oid_users, align 4
  %5 = icmp ult i32 %3, %4
  br i1 %5, label %6, label %28

6:                                                ; preds = %2
  %7 = load ptr, ptr @oid_users, align 8
  %8 = load i32, ptr %1, align 4
  %9 = zext i32 %8 to i64
  %10 = getelementptr %struct._oid_user_t, ptr %7, i64 %9
  %11 = getelementptr inbounds nuw %struct._oid_user_t, ptr %10, i32 0, i32 0
  %12 = load ptr, ptr %11, align 8
  %13 = load ptr, ptr @oid_users, align 8
  %14 = load i32, ptr %1, align 4
  %15 = zext i32 %14 to i64
  %16 = getelementptr %struct._oid_user_t, ptr %13, i64 %15
  %17 = getelementptr inbounds nuw %struct._oid_user_t, ptr %16, i32 0, i32 1
  %18 = load ptr, ptr %17, align 8
  %19 = load ptr, ptr @oid_users, align 8
  %20 = load i32, ptr %1, align 4
  %21 = zext i32 %20 to i64
  %22 = getelementptr %struct._oid_user_t, ptr %19, i64 %21
  %23 = getelementptr inbounds nuw %struct._oid_user_t, ptr %22, i32 0, i32 2
  %24 = load ptr, ptr %23, align 8
  call void @register_ber_oid_syntax(ptr noundef %12, ptr noundef %18, ptr noundef %24)
  br label %25

25:                                               ; preds = %6
  %26 = load i32, ptr %1, align 4
  %27 = add i32 %26, 1
  store i32 %27, ptr %1, align 4
  br label %2, !llvm.loop !29

28:                                               ; preds = %2
  call void @llvm.lifetime.end.p0(i64 4, ptr %1) #12
  ret void
}