; Function Attrs: null_pointer_is_valid sspstrong uwtable
define internal void @ber_update_oids() #0 {
  %1 = load i32, ptr @num_oid_users, align 4
  %.not = icmp eq i32 %1, 0
  br i1 %.not, label %._crit_edge, label %.lr.ph

.lr.ph:                                           ; preds = %0, %register_ber_oid_syntax.exit
  %indvars.iv = phi i64 [ %indvars.iv.next, %register_ber_oid_syntax.exit ], [ 0, %0 ]
  %2 = load ptr, ptr @oid_users, align 8
  %3 = getelementptr %struct._oid_user_t, ptr %2, i64 %indvars.iv
  %4 = load ptr, ptr %3, align 8
  %5 = getelementptr inbounds nuw i8, ptr %3, i64 8
  %6 = load ptr, ptr %5, align 8
  %7 = getelementptr inbounds nuw i8, ptr %3, i64 16
  %8 = load ptr, ptr %7, align 8
  %.not.i = icmp eq ptr %8, null
  br i1 %.not.i, label %16, label %9

9:                                                ; preds = %.lr.ph
  %10 = load i8, ptr %8, align 1
  %.not9.i = icmp eq i8 %10, 0
  br i1 %.not9.i, label %16, label %11

11:                                               ; preds = %9
  %12 = load ptr, ptr @syntax_table, align 8
  %13 = tail call noalias ptr @g_strdup(ptr noundef %4)
  %14 = tail call noalias ptr @g_strdup(ptr noundef nonnull %8)
  %15 = tail call i32 @g_hash_table_insert(ptr noundef %12, ptr noundef %13, ptr noundef %14)
  br label %16

16:                                               ; preds = %11, %9, %.lr.ph
  %.not10.i = icmp eq ptr %6, null
  br i1 %.not10.i, label %register_ber_oid_syntax.exit, label %17

17:                                               ; preds = %16
  %18 = load i8, ptr %6, align 1
  %.not11.i = icmp eq i8 %18, 0
  br i1 %.not11.i, label %register_ber_oid_syntax.exit, label %19

19:                                               ; preds = %17
  tail call void @oid_add_from_string(ptr noundef nonnull %6, ptr noundef %4)
  br label %register_ber_oid_syntax.exit

register_ber_oid_syntax.exit:                     ; preds = %16, %17, %19
  %indvars.iv.next = add nuw nsw i64 %indvars.iv, 1
  %20 = load i32, ptr @num_oid_users, align 4
  %21 = zext i32 %20 to i64
  %22 = icmp samesign ult i64 %indvars.iv.next, %21
  br i1 %22, label %.lr.ph, label %._crit_edge, !llvm.loop !29

._crit_edge:                                      ; preds = %register_ber_oid_syntax.exit, %0
  ret void
}